target datalayout = "e-m:e-p270:32:32-p271:32:32-p272:64:64-i64:64-i128:128-f80:128-n8:16:32:64-S128"
target triple = "x86_64-pc-linux-gnu"

%struct.PJconsts = type { ptr, ptr, ptr, ptr, ptr, ptr, ptr, ptr, ptr, ptr, ptr, ptr, i32, ptr, ptr, ptr, ptr, ptr, ptr, ptr, ptr, double, double, double, double, double, double, double, double, double, double, double, double, double, double, double, double, double, double, double, double, double, double, i32, i32, i32, i32, i32, i32, i32, i32, i32, i32, i32, ptr, ptr, ptr, ptr, ptr, ptr, double, double, double, double, double, double, double, double, double, double, double, i32, [7 x double], i32, ptr, ptr, double, double, i32, [4 x i8], %"class.std::shared_ptr", i8, double, i8, %"class.std::__cxx11::basic_string", %"class.std::__cxx11::basic_string", %"class.std::__cxx11::basic_string", i8, %"class.std::vector", i32, %"class.std::vector.3", i32, i8, i8, i8, ptr }
%"class.std::shared_ptr" = type { %"class.std::__shared_ptr" }
%"class.std::__shared_ptr" = type { ptr, %"class.std::__shared_count" }
%"class.std::__shared_count" = type { ptr }
%"class.std::__cxx11::basic_string" = type { %"struct.std::__cxx11::basic_string<char>::_Alloc_hider", i64, %union.anon }
%"struct.std::__cxx11::basic_string<char>::_Alloc_hider" = type { ptr }
%union.anon = type { i64, [8 x i8] }
%"class.std::vector" = type { %"struct.std::_Vector_base" }
%"struct.std::_Vector_base" = type { %"struct.std::_Vector_base<osgeo::proj::operation::GridDescription, std::allocator<osgeo::proj::operation::GridDescription>>::_Vector_impl" }
%"struct.std::_Vector_base<osgeo::proj::operation::GridDescription, std::allocator<osgeo::proj::operation::GridDescription>>::_Vector_impl" = type { %"struct.std::_Vector_base<osgeo::proj::operation::GridDescription, std::allocator<osgeo::proj::operation::GridDescription>>::_Vector_impl_data" }
%"struct.std::_Vector_base<osgeo::proj::operation::GridDescription, std::allocator<osgeo::proj::operation::GridDescription>>::_Vector_impl_data" = type { ptr, ptr, ptr }
%"class.std::vector.3" = type { %"struct.std::_Vector_base.4" }
%"struct.std::_Vector_base.4" = type { %"struct.std::_Vector_base<PJCoordOperation, std::allocator<PJCoordOperation>>::_Vector_impl" }
%"struct.std::_Vector_base<PJCoordOperation, std::allocator<PJCoordOperation>>::_Vector_impl" = type { %"struct.std::_Vector_base<PJCoordOperation, std::allocator<PJCoordOperation>>::_Vector_impl_data" }
%"struct.std::_Vector_base<PJCoordOperation, std::allocator<PJCoordOperation>>::_Vector_impl_data" = type { ptr, ptr, ptr }
%union.PROJVALUE = type { double }
%"struct.(anonymous namespace)::pj_col_urban" = type { double, double, double, double, double, double }

@.str.1 = private unnamed_addr constant [5 x i8] c"dh_0\00", align 1

; Function Attrs: mustprogress uwtable
define hidden noundef ptr @_Z38pj_projection_specific_setup_col_urbanP8PJconsts(ptr noundef %0) #0 {
  %2 = alloca ptr, align 8
  %3 = alloca ptr, align 8
  %4 = alloca ptr, align 8
  %5 = alloca i32, align 4
  %6 = alloca double, align 8
  %7 = alloca %union.PROJVALUE, align 8
  %8 = alloca double, align 8
  %9 = alloca double, align 8
  store ptr %0, ptr %3, align 8, !tbaa !3
  call void @llvm.lifetime.start.p0(i64 8, ptr %4) #7
  %10 = call noalias ptr @calloc(i64 noundef 1, i64 noundef 48) #8
  store ptr %10, ptr %4, align 8, !tbaa !41
  %11 = load ptr, ptr %4, align 8, !tbaa !41
  %12 = icmp eq ptr null, %11
  br i1 %12, label %13, label %16

13:                                               ; preds = %1
  %14 = load ptr, ptr %3, align 8, !tbaa !3
  %15 = call noundef ptr @_Z21pj_default_destructorP8PJconstsi(ptr noundef %14, i32 noundef 4096)
  store ptr %15, ptr %2, align 8
  store i32 1, ptr %5, align 4
  br label %113

16:                                               ; preds = %1
  %17 = load ptr, ptr %4, align 8, !tbaa !41
  %18 = load ptr, ptr %3, align 8, !tbaa !3
  %19 = getelementptr inbounds nuw %struct.PJconsts, ptr %18, i32 0, i32 11
  store ptr %17, ptr %19, align 8, !tbaa !43
  call void @llvm.lifetime.start.p0(i64 8, ptr %6) #7
  call void @llvm.lifetime.start.p0(i64 8, ptr %7) #7
  %20 = load ptr, ptr %3, align 8, !tbaa !3
  %21 = getelementptr inbounds nuw %struct.PJconsts, ptr %20, i32 0, i32 0
  %22 = load ptr, ptr %21, align 8, !tbaa !44
  %23 = load ptr, ptr %3, align 8, !tbaa !3
  %24 = getelementptr inbounds nuw %struct.PJconsts, ptr %23, i32 0, i32 3
  %25 = load ptr, ptr %24, align 8, !tbaa !45
  %26 = call i64 @_Z8pj_paramP6pj_ctxP8ARG_listPKc(ptr noundef %22, ptr noundef %25, ptr noundef @.str.1)
  %27 = getelementptr inbounds nuw %union.PROJVALUE, ptr %7, i32 0, i32 0
  store i64 %26, ptr %27, align 8
  %28 = load double, ptr %7, align 8, !tbaa !46
  call void @llvm.lifetime.end.p0(i64 8, ptr %7) #7
  store double %28, ptr %6, align 8, !tbaa !47
  %29 = load double, ptr %6, align 8, !tbaa !47
  %30 = load ptr, ptr %3, align 8, !tbaa !3
  %31 = getelementptr inbounds nuw %struct.PJconsts, ptr %30, i32 0, i32 21
  %32 = load double, ptr %31, align 8, !tbaa !48
  %33 = fdiv double %29, %32
  %34 = load ptr, ptr %4, align 8, !tbaa !41
  %35 = getelementptr inbounds nuw %"struct.(anonymous namespace)::pj_col_urban", ptr %34, i32 0, i32 0
  store double %33, ptr %35, align 8, !tbaa !49
  call void @llvm.lifetime.start.p0(i64 8, ptr %8) #7
  %36 = load ptr, ptr %3, align 8, !tbaa !3
  %37 = getelementptr inbounds nuw %struct.PJconsts, ptr %36, i32 0, i32 61
  %38 = load double, ptr %37, align 8, !tbaa !51
  %39 = call double @sin(double noundef %38) #7, !tbaa !52
  store double %39, ptr %8, align 8, !tbaa !47
  call void @llvm.lifetime.start.p0(i64 8, ptr %9) #7
  %40 = load ptr, ptr %3, align 8, !tbaa !3
  %41 = getelementptr inbounds nuw %struct.PJconsts, ptr %40, i32 0, i32 27
  %42 = load double, ptr %41, align 8, !tbaa !53
  %43 = load double, ptr %8, align 8, !tbaa !47
  %44 = fmul double %42, %43
  %45 = load double, ptr %8, align 8, !tbaa !47
  %46 = fneg double %44
  %47 = call double @llvm.fmuladd.f64(double %46, double %45, double 1.000000e+00)
  %48 = call double @sqrt(double noundef %47) #7, !tbaa !52
  %49 = fdiv double 1.000000e+00, %48
  store double %49, ptr %9, align 8, !tbaa !47
  %50 = load ptr, ptr %4, align 8, !tbaa !41
  %51 = getelementptr inbounds nuw %"struct.(anonymous namespace)::pj_col_urban", ptr %50, i32 0, i32 0
  %52 = load double, ptr %51, align 8, !tbaa !49
  %53 = load double, ptr %9, align 8, !tbaa !47
  %54 = fdiv double %52, %53
  %55 = fadd double 1.000000e+00, %54
  %56 = load ptr, ptr %4, align 8, !tbaa !41
  %57 = getelementptr inbounds nuw %"struct.(anonymous namespace)::pj_col_urban", ptr %56, i32 0, i32 2
  store double %55, ptr %57, align 8, !tbaa !54
  %58 = load ptr, ptr %3, align 8, !tbaa !3
  %59 = getelementptr inbounds nuw %struct.PJconsts, ptr %58, i32 0, i32 27
  %60 = load double, ptr %59, align 8, !tbaa !53
  %61 = fsub double 1.000000e+00, %60
  %62 = load ptr, ptr %3, align 8, !tbaa !3
  %63 = getelementptr inbounds nuw %struct.PJconsts, ptr %62, i32 0, i32 27
  %64 = load double, ptr %63, align 8, !tbaa !53
  %65 = load double, ptr %8, align 8, !tbaa !47
  %66 = fmul double %64, %65
  %67 = load double, ptr %8, align 8, !tbaa !47
  %68 = fneg double %66
  %69 = call double @llvm.fmuladd.f64(double %68, double %67, double 1.000000e+00)
  %70 = call double @pow(double noundef %69, double noundef 1.500000e+00) #7, !tbaa !52
  %71 = fdiv double %61, %70
  %72 = load ptr, ptr %4, align 8, !tbaa !41
  %73 = getelementptr inbounds nuw %"struct.(anonymous namespace)::pj_col_urban", ptr %72, i32 0, i32 1
  store double %71, ptr %73, align 8, !tbaa !55
  %74 = load ptr, ptr %3, align 8, !tbaa !3
  %75 = getelementptr inbounds nuw %struct.PJconsts, ptr %74, i32 0, i32 61
  %76 = load double, ptr %75, align 8, !tbaa !51
  %77 = call double @tan(double noundef %76) #7, !tbaa !52
  %78 = load ptr, ptr %4, align 8, !tbaa !41
  %79 = getelementptr inbounds nuw %"struct.(anonymous namespace)::pj_col_urban", ptr %78, i32 0, i32 1
  %80 = load double, ptr %79, align 8, !tbaa !55
  %81 = fmul double 2.000000e+00, %80
  %82 = load double, ptr %9, align 8, !tbaa !47
  %83 = fmul double %81, %82
  %84 = fdiv double %77, %83
  %85 = load ptr, ptr %4, align 8, !tbaa !41
  %86 = getelementptr inbounds nuw %"struct.(anonymous namespace)::pj_col_urban", ptr %85, i32 0, i32 3
  store double %84, ptr %86, align 8, !tbaa !56
  %87 = load ptr, ptr %4, align 8, !tbaa !41
  %88 = getelementptr inbounds nuw %"struct.(anonymous namespace)::pj_col_urban", ptr %87, i32 0, i32 0
  %89 = load double, ptr %88, align 8, !tbaa !49
  %90 = fadd double 1.000000e+00, %89
  %91 = load ptr, ptr %4, align 8, !tbaa !41
  %92 = getelementptr inbounds nuw %"struct.(anonymous namespace)::pj_col_urban", ptr %91, i32 0, i32 4
  store double %90, ptr %92, align 8, !tbaa !57
  %93 = load ptr, ptr %4, align 8, !tbaa !41
  %94 = getelementptr inbounds nuw %"struct.(anonymous namespace)::pj_col_urban", ptr %93, i32 0, i32 1
  %95 = load double, ptr %94, align 8, !tbaa !55
  %96 = load ptr, ptr %4, align 8, !tbaa !41
  %97 = getelementptr inbounds nuw %"struct.(anonymous namespace)::pj_col_urban", ptr %96, i32 0, i32 0
  %98 = load double, ptr %97, align 8, !tbaa !49
  %99 = load ptr, ptr %3, align 8, !tbaa !3
  %100 = getelementptr inbounds nuw %struct.PJconsts, ptr %99, i32 0, i32 27
  %101 = load double, ptr %100, align 8, !tbaa !53
  %102 = fsub double 1.000000e+00, %101
  %103 = fdiv double %98, %102
  %104 = fadd double 1.000000e+00, %103
  %105 = fmul double %95, %104
  %106 = load ptr, ptr %4, align 8, !tbaa !41
  %107 = getelementptr inbounds nuw %"struct.(anonymous namespace)::pj_col_urban", ptr %106, i32 0, i32 5
  store double %105, ptr %107, align 8, !tbaa !58
  %108 = load ptr, ptr %3, align 8, !tbaa !3
  %109 = getelementptr inbounds nuw %struct.PJconsts, ptr %108, i32 0, i32 13
  store ptr @_ZL17col_urban_forward5PJ_LPP8PJconsts, ptr %109, align 8, !tbaa !59
  %110 = load ptr, ptr %3, align 8, !tbaa !3
  %111 = getelementptr inbounds nuw %struct.PJconsts, ptr %110, i32 0, i32 14
  store ptr @_ZL17col_urban_inverse5PJ_XYP8PJconsts, ptr %111, align 8, !tbaa !60
  %112 = load ptr, ptr %3, align 8, !tbaa !3
  store ptr %112, ptr %2, align 8
  store i32 1, ptr %5, align 4
  call void @llvm.lifetime.end.p0(i64 8, ptr %9) #7
  call void @llvm.lifetime.end.p0(i64 8, ptr %8) #7
  call void @llvm.lifetime.end.p0(i64 8, ptr %6) #7
  br label %113

113:                                              ; preds = %16, %13
  call void @llvm.lifetime.end.p0(i64 8, ptr %4) #7
  %114 = load ptr, ptr %2, align 8
  ret ptr %114
}