; Function Attrs: mustprogress uwtable
define hidden noundef ptr @_Z38pj_projection_specific_setup_col_urbanP8PJconsts(ptr noundef %0) local_unnamed_addr #0 {
  %2 = tail call noalias dereferenceable_or_null(48) ptr @calloc(i64 noundef 1, i64 noundef 48) #6
  %3 = icmp eq ptr %2, null
  br i1 %3, label %4, label %6

4:                                                ; preds = %1
  %5 = tail call noundef ptr @_Z21pj_default_destructorP8PJconstsi(ptr noundef %0, i32 noundef 4096)
  br label %46

6:                                                ; preds = %1
  %7 = getelementptr inbounds nuw i8, ptr %0, i64 88
  store ptr %2, ptr %7, align 8, !tbaa !40
  %8 = load ptr, ptr %0, align 8, !tbaa !41
  %9 = getelementptr inbounds nuw i8, ptr %0, i64 24
  %10 = load ptr, ptr %9, align 8, !tbaa !42
  %11 = tail call i64 @_Z8pj_paramP6pj_ctxP8ARG_listPKc(ptr noundef %8, ptr noundef %10, ptr noundef nonnull @.str.1)
  %12 = bitcast i64 %11 to double
  %13 = getelementptr inbounds nuw i8, ptr %0, i64 168
  %14 = load double, ptr %13, align 8, !tbaa !43
  %15 = fdiv double %12, %14
  store double %15, ptr %2, align 8, !tbaa !44
  %16 = getelementptr inbounds nuw i8, ptr %0, i64 448
  %17 = load double, ptr %16, align 8, !tbaa !46
  %18 = tail call double @sin(double noundef %17) #7, !tbaa !47
  %19 = getelementptr inbounds nuw i8, ptr %0, i64 216
  %20 = load double, ptr %19, align 8, !tbaa !48
  %21 = fneg double %18
  %22 = fmul double %20, %21
  %23 = tail call double @llvm.fmuladd.f64(double %22, double %18, double 1.000000e+00)
  %24 = tail call double @sqrt(double noundef %23) #7, !tbaa !47
  %25 = fdiv double 1.000000e+00, %24
  %26 = fdiv double %15, %25
  %27 = fadd double %26, 1.000000e+00
  %28 = getelementptr inbounds nuw i8, ptr %2, i64 16
  store double %27, ptr %28, align 8, !tbaa !49
  %29 = fsub double 1.000000e+00, %20
  %30 = tail call double @pow(double noundef %23, double noundef 1.500000e+00) #7, !tbaa !47
  %31 = fdiv double %29, %30
  %32 = getelementptr inbounds nuw i8, ptr %2, i64 8
  store double %31, ptr %32, align 8, !tbaa !50
  %33 = tail call double @tan(double noundef %17) #7, !tbaa !47
  %34 = fmul double %31, 2.000000e+00
  %35 = fmul double %25, %34
  %36 = fdiv double %33, %35
  %37 = getelementptr inbounds nuw i8, ptr %2, i64 24
  store double %36, ptr %37, align 8, !tbaa !51
  %38 = fadd double %15, 1.000000e+00
  %39 = getelementptr inbounds nuw i8, ptr %2, i64 32
  store double %38, ptr %39, align 8, !tbaa !52
  %40 = fdiv double %15, %29
  %41 = fadd double %40, 1.000000e+00
  %42 = fmul double %41, %31
  %43 = getelementptr inbounds nuw i8, ptr %2, i64 40
  store double %42, ptr %43, align 8, !tbaa !53
  %44 = getelementptr inbounds nuw i8, ptr %0, i64 104
  store ptr @_ZL17col_urban_forward5PJ_LPP8PJconsts, ptr %44, align 8, !tbaa !54
  %45 = getelementptr inbounds nuw i8, ptr %0, i64 112
  store ptr @_ZL17col_urban_inverse5PJ_XYP8PJconsts, ptr %45, align 8, !tbaa !55
  br label %46

46:                                               ; preds = %6, %4
  %.0 = phi ptr [ %5, %4 ], [ %0, %6 ]
  ret ptr %.0
}